; Function Attrs: mustprogress uwtable
define hidden noundef zeroext i1 @_ZNK11tbv_manager7set_andER3tbvRKS0_(ptr noundef nonnull align 8 dereferenceable(552) %0, ptr noundef nonnull align 4 dereferenceable(4) %1, ptr noundef nonnull align 4 dereferenceable(4) %2) local_unnamed_addr #5 align 2 {
  %4 = tail call noundef nonnull align 4 dereferenceable(4) ptr @_ZNK24fixed_bit_vector_manager7set_andER16fixed_bit_vectorRKS0_(ptr noundef nonnull align 8 dereferenceable(540) %0, ptr noundef nonnull align 4 dereferenceable(4) %1, ptr noundef nonnull align 4 dereferenceable(4) %2)
  %5 = getelementptr inbounds nuw i8, ptr %0, i64 528
  %6 = load i32, ptr %5, align 8, !tbaa !40
  %7 = tail call i32 @llvm.usub.sat.i32(i32 %6, i32 1)
  %wide.trip.count.i = zext i32 %7 to i64
  br label %8

8:                                                ; preds = %9, %3
  %indvars.iv.i = phi i64 [ %indvars.iv.next.i, %9 ], [ 0, %3 ]
  %exitcond.not.i = icmp eq i64 %indvars.iv.i, %wide.trip.count.i
  br i1 %exitcond.not.i, label %.critedge.i, label %9

9:                                                ; preds = %8
  %indvars.iv.next.i = add nuw nsw i64 %indvars.iv.i, 1
  %10 = getelementptr inbounds nuw [1 x i32], ptr %1, i64 0, i64 %indvars.iv.i
  %11 = load i32, ptr %10, align 4, !tbaa !17
  %12 = shl i32 %11, 1
  %13 = or i32 %12, %11
  %14 = and i32 %13, -1431655766
  %.not.i = icmp eq i32 %14, -1431655766
  br i1 %.not.i, label %8, label %_ZNK11tbv_manager14is_well_formedERK3tbv.exit, !llvm.loop !41

.critedge.i:                                      ; preds = %8
  %.not19.i = icmp eq i32 %6, 0
  br i1 %.not19.i, label %24, label %15

15:                                               ; preds = %.critedge.i
  %16 = tail call noundef i32 @_ZNK24fixed_bit_vector_manager9last_wordERK16fixed_bit_vector(ptr noundef nonnull align 8 dereferenceable(552) %0, ptr noundef nonnull align 4 dereferenceable(4) %1)
  %17 = shl i32 %16, 1
  %18 = getelementptr inbounds nuw i8, ptr %0, i64 532
  %19 = load i32, ptr %18, align 4, !tbaa !42
  %20 = xor i32 %19, -1
  %21 = or i32 %17, %20
  %22 = or i32 %21, %16
  %23 = and i32 %22, -1431655766
  %.not20.i = icmp eq i32 %23, -1431655766
  br i1 %.not20.i, label %24, label %_ZNK11tbv_manager14is_well_formedERK3tbv.exit

24:                                               ; preds = %15, %.critedge.i
  br label %_ZNK11tbv_manager14is_well_formedERK3tbv.exit

_ZNK11tbv_manager14is_well_formedERK3tbv.exit:    ; preds = %9, %15, %24
  %.1.i = phi i1 [ true, %24 ], [ false, %15 ], [ false, %9 ]
  ret i1 %.1.i
}